target datalayout = "e-m:e-p270:32:32-p271:32:32-p272:64:64-i64:64-i128:128-f80:128-n8:16:32:64-S128"
target triple = "x86_64-pc-linux-gnu"

%"class.std::__cxx11::basic_string" = type { %"struct.std::__cxx11::basic_string<char>::_Alloc_hider", i64, %union.anon }
%"struct.std::__cxx11::basic_string<char>::_Alloc_hider" = type { ptr }
%union.anon = type { i64, [8 x i8] }
%"struct.rocksdb::ConfigOptions" = type { i8, i8, i8, i8, i8, %"class.std::__cxx11::basic_string", i32, i8, i64, ptr, %"class.std::shared_ptr" }
%"class.std::shared_ptr" = type { %"class.std::__shared_ptr" }
%"class.std::__shared_ptr" = type { ptr, %"class.std::__shared_count" }
%"class.std::__shared_count" = type { ptr }
%"class.rocksdb::Status" = type { i8, i8, i8, i8, i8, i8, %"class.std::unique_ptr" }
%"class.std::unique_ptr" = type { %"struct.std::__uniq_ptr_data" }
%"struct.std::__uniq_ptr_data" = type { %"class.std::__uniq_ptr_impl" }
%"class.std::__uniq_ptr_impl" = type { %"class.std::tuple" }
%"class.std::tuple" = type { %"struct.std::_Tuple_impl" }
%"struct.std::_Tuple_impl" = type { %"struct.std::_Head_base.33" }
%"struct.std::_Head_base.33" = type { ptr }

@_ZN7rocksdb13ConfigOptionsC1ERKNS_9DBOptionsE = unnamed_addr alias void (ptr, ptr), ptr @_ZN7rocksdb13ConfigOptionsC2ERKNS_9DBOptionsE

; Function Attrs: mustprogress uwtable
define void @_ZN7rocksdb20GetOptionsFromStringERKNS_7OptionsERKNSt7__cxx1112basic_stringIcSt11char_traitsIcESaIcEEEPS0_(ptr dead_on_unwind noalias writable sret(%"class.rocksdb::Status") align 8 %0, ptr noundef nonnull align 8 dereferenceable(1544) %1, ptr noundef nonnull align 8 dereferenceable(32) %2, ptr noundef %3) #3 personality ptr @__gxx_personality_v0 {
  %5 = alloca ptr, align 8
  %6 = alloca ptr, align 8
  %7 = alloca ptr, align 8
  %8 = alloca ptr, align 8
  %9 = alloca %"struct.rocksdb::ConfigOptions", align 8
  %10 = alloca ptr, align 8
  %11 = alloca i32, align 4
  store ptr %0, ptr %5, align 8
  store ptr %1, ptr %6, align 8, !tbaa !734
  store ptr %2, ptr %7, align 8, !tbaa !37
  store ptr %3, ptr %8, align 8, !tbaa !734
  call void @llvm.lifetime.start.p0(i64 80, ptr %9) #8
  %12 = load ptr, ptr %6, align 8, !tbaa !734
  call void @_ZN7rocksdb13ConfigOptionsC1ERKNS_9DBOptionsE(ptr noundef nonnull align 8 dereferenceable(80) %9, ptr noundef nonnull align 8 dereferenceable(706) %12)
  %13 = getelementptr inbounds nuw %"struct.rocksdb::ConfigOptions", ptr %9, i32 0, i32 2
  store i8 0, ptr %13, align 2, !tbaa !28
  %14 = getelementptr inbounds nuw %"struct.rocksdb::ConfigOptions", ptr %9, i32 0, i32 0
  store i8 0, ptr %14, align 8, !tbaa !13
  %15 = load ptr, ptr %6, align 8, !tbaa !734
  %16 = load ptr, ptr %7, align 8, !tbaa !37
  %17 = load ptr, ptr %8, align 8, !tbaa !734
  invoke void @_ZN7rocksdb20GetOptionsFromStringERKNS_13ConfigOptionsERKNS_7OptionsERKNSt7__cxx1112basic_stringIcSt11char_traitsIcESaIcEEEPS3_(ptr dead_on_unwind writable sret(%"class.rocksdb::Status") align 8 %0, ptr noundef nonnull align 8 dereferenceable(80) %9, ptr noundef nonnull align 8 dereferenceable(1544) %15, ptr noundef nonnull align 8 dereferenceable(32) %16, ptr noundef %17)
          to label %18 unwind label %19

18:                                               ; preds = %4
  call void @_ZN7rocksdb13ConfigOptionsD2Ev(ptr noundef nonnull align 8 dereferenceable(80) %9) #8
  call void @llvm.lifetime.end.p0(i64 80, ptr %9) #8
  ret void

19:                                               ; preds = %4
  %20 = landingpad { ptr, i32 }
          cleanup
  %21 = extractvalue { ptr, i32 } %20, 0
  store ptr %21, ptr %10, align 8
  %22 = extractvalue { ptr, i32 } %20, 1
  store i32 %22, ptr %11, align 4
  call void @_ZN7rocksdb13ConfigOptionsD2Ev(ptr noundef nonnull align 8 dereferenceable(80) %9) #8
  call void @llvm.lifetime.end.p0(i64 80, ptr %9) #8
  br label %23

23:                                               ; preds = %19
  %24 = load ptr, ptr %10, align 8
  %25 = load i32, ptr %11, align 4
  %26 = insertvalue { ptr, i32 } poison, ptr %24, 0
  %27 = insertvalue { ptr, i32 } %26, i32 %25, 1
  resume { ptr, i32 } %27
}